; ModuleID = '16/696.c'
source_filename = "16/696.c"
target datalayout = "e-m:e-p270:32:32-p271:32:32-p272:64:64-i64:64-f80:128-n8:16:32:64-S128"
target triple = "x86_64-pc-linux-gnu"

@.str = private unnamed_addr constant [3 x i8] c"%d\00", align 1

; Function Attrs: noinline nounwind uwtable
define dso_local i32 @main() #0 {
  %1 = alloca i32, align 4
  %2 = alloca i32, align 4
  %3 = alloca i32, align 4
  %4 = alloca [6 x i32], align 16
  store i32 0, i32* %1, align 4
  %5 = call i32 (i8*, ...) @__isoc99_scanf(i8* getelementptr inbounds ([3 x i8], [3 x i8]* @.str, i64 0, i64 0), i32* %2)
  store i32 0, i32* %3, align 4
  br label %6

6:                                                ; preds = %33, %0
  %7 = load i32, i32* %3, align 4
  %8 = icmp slt i32 %7, 5
  br i1 %8, label %9, label %36

9:                                                ; preds = %6
  %10 = load i32, i32* %2, align 4
  %11 = load i32, i32* %2, align 4
  %12 = srem i32 %11, 10
  %13 = icmp eq i32 %10, %12
  br i1 %13, label %14, label %19

14:                                               ; preds = %9
  %15 = load i32, i32* %3, align 4
  %16 = add nsw i32 %15, 5
  store i32 %16, i32* %3, align 4
  %17 = load i32, i32* %2, align 4
  %18 = call i32 (i8*, ...) @printf(i8* getelementptr inbounds ([3 x i8], [3 x i8]* @.str, i64 0, i64 0), i32 %17)
  br label %32

19:                                               ; preds = %9
  %20 = load i32, i32* %2, align 4
  %21 = srem i32 %20, 10
  %22 = load i32, i32* %3, align 4
  %23 = sext i32 %22 to i64
  %24 = getelementptr inbounds [6 x i32], [6 x i32]* %4, i64 0, i64 %23
  store i32 %21, i32* %24, align 4
  %25 = load i32, i32* %2, align 4
  %26 = sdiv i32 %25, 10
  store i32 %26, i32* %2, align 4
  %27 = load i32, i32* %3, align 4
  %28 = sext i32 %27 to i64
  %29 = getelementptr inbounds [6 x i32], [6 x i32]* %4, i64 0, i64 %28
  %30 = load i32, i32* %29, align 4
  %31 = call i32 (i8*, ...) @printf(i8* getelementptr inbounds ([3 x i8], [3 x i8]* @.str, i64 0, i64 0), i32 %30)
  br label %32

32:                                               ; preds = %19, %14
  br label %33

33:                                               ; preds = %32
  %34 = load i32, i32* %3, align 4
  %35 = add nsw i32 %34, 1
  store i32 %35, i32* %3, align 4
  br label %6

36:                                               ; preds = %6
  ret i32 0
}

declare dso_local i32 @__isoc99_scanf(i8*, ...) #1

declare dso_local i32 @printf(i8*, ...) #1


!llvm.module.flags = !{!0}
!llvm.ident = !{!1}

!0 = !{i32 1, !"wchar_size", i32 4}
!1 = !{!"clang version 10.0.0-4ubuntu1 "}
